Certificate:
    Data:
        Version: 3 (0x2)
        Serial Number: 1 (0x1)
    Signature Algorithm: sha256WithRSAEncryption
        Issuer: C=US, ST=CA, L=SanFrancisco, O=Fort-Funston, OU=MyOrganizationalUnit, CN=Fort-Funston CA/name=EasyRSA/emailAddress=me@myhost.mydomain
        Validity
            Not Before: Feb 13 08:32:38 2018 GMT
            Not After : Feb 11 08:32:38 2028 GMT
        Subject: C=US, ST=CA, L=SanFrancisco, O=Fort-Funston, OU=MyOrganizationalUnit, CN=server/name=EasyRSA/emailAddress=me@myhost.mydomain
        Subject Public Key Info:
            Public Key Algorithm: rsaEncryption
                Public-Key: (2048 bit)
                Modulus:
                    00:f1:ab:25:75:9b:13:c0:f8:b2:7f:61:c7:97:4e:
                    76:dd:3e:fb:45:ff:75:9e:fc:8a:23:c8:c1:5a:45:
                    e9:9a:86:d5:2c:3d:b2:e5:cd:42:2a:4c:3f:19:44:
                    02:d0:04:c4:35:cc:c4:22:23:57:bd:d1:1d:37:11:
                    fb:eb:ca:d1:63:22:29:fc:2b:15:83:6a:89:2e:99:
                    d3:21:f8:c2:15:74:ff:6f:b4:5a:03:f3:c0:5f:96:
                    05:19:01:bd:ef:97:e1:be:7b:18:f5:e3:6f:94:0c:
                    94:ff:ef:82:99:57:99:ac:19:12:46:33:69:bf:73:
                    c8:a4:d0:ef:3d:6d:5c:17:1f:85:f2:38:b3:16:22:
                    49:49:7b:a7:cc:e4:c7:00:dc:50:14:20:b1:df:a3:
                    96:3e:e5:fb:b6:5b:01:23:14:b0:4a:9b:75:b8:63:
                    5b:21:7f:b0:f0:61:a3:08:ab:d7:a8:d7:a4:7f:1f:
                    52:0d:7a:64:43:07:00:de:88:49:08:ce:58:32:71:
                    3c:3a:36:37:8f:06:55:22:59:ab:db:56:68:a4:f4:
                    50:ad:3f:28:1c:ea:34:ed:eb:85:41:ea:1a:5d:e0:
                    f2:f9:a2:0b:74:e0:cc:56:94:67:b9:19:6c:93:40:
                    1b:ee:96:bb:db:b5:df:22:e6:08:87:06:95:da:5c:
                    89:55
                Exponent: 65537 (0x10001)
        X509v3 extensions:
            X509v3 Basic Constraints: 
                CA:FALSE
            Netscape Cert Type: 
                SSL Server
            Netscape Comment: 
                Easy-RSA Generated Server Certificate
            X509v3 Subject Key Identifier: 
                F3:9E:3F:6B:1B:15:8B:BC:4D:80:90:73:2E:19:30:50:92:41:04:35
            X509v3 Authority Key Identifier: 
                keyid:BB:B1:B6:95:09:31:47:33:5D:6F:DE:AB:C8:45:61:36:58:E7:33:D3
                DirName:/C=US/ST=CA/L=SanFrancisco/O=Fort-Funston/OU=MyOrganizationalUnit/CN=Fort-Funston CA/name=EasyRSA/emailAddress=me@myhost.mydomain
                serial:99:CC:68:6A:5B:3C:43:B2

            X509v3 Extended Key Usage: 
                TLS Web Server Authentication
            X509v3 Key Usage: 
                Digital Signature, Key Encipherment
            X509v3 Subject Alternative Name: 
                DNS:server
    Signature Algorithm: sha256WithRSAEncryption
         8b:ef:3d:7f:3f:ad:39:ac:df:26:3b:e0:79:bf:f2:88:6c:d2:
         0c:df:13:7b:5a:67:3e:38:de:3a:c4:eb:04:d7:6d:5c:9d:e6:
         85:ba:a6:93:97:14:96:78:c6:89:bb:d0:f5:67:93:84:e8:34:
         62:08:3f:6a:d4:85:6e:bf:2c:0c:1f:f9:e9:6a:5c:33:e7:ce:
         7b:3d:b5:85:94:96:07:48:9d:1f:6e:29:b9:5c:22:01:f6:e7:
         70:10:ef:da:9d:30:da:86:4b:af:6b:77:93:07:00:8e:87:c2:
         f5:b6:07:ef:af:49:4c:30:b8:fc:d5:2e:b8:eb:c1:34:b4:f8:
         b6:24:ea:3a:23:58:8c:fc:0d:c0:85:87:90:50:16:86:18:ac:
         1a:f8:3f:f2:89:6f:e5:c5:7a:05:68:df:fa:c0:5c:b4:8a:d4:
         cf:b9:fa:ca:ae:2b:77:ee:cb:39:a8:52:8a:1d:a3:38:cf:36:
         f9:d9:58:68:10:22:3b:2d:9a:10:16:02:90:33:76:d0:5c:41:
         30:53:5c:6b:c1:9f:6e:e2:37:47:f3:29:84:a6:e0:51:b4:93:
         fc:29:fb:b3:d6:5d:20:0d:99:72:3c:a4:c8:c0:38:54:f5:b9:
         2f:c4:5b:d8:8d:b7:5c:3e:f1:4b:31:fe:a2:94:b7:34:de:bb:
         71:07:35:5d
-----BEGIN CERTIFICATE-----
MIIFfDCCBGSgAwIBAgIBATANBgkqhkiG9w0BAQsFADCBtjELMAkGA1UEBhMCVVMx
CzAJBgNVBAgTAkNBMRUwEwYDVQQHEwxTYW5GcmFuY2lzY28xFTATBgNVBAoTDEZv
cnQtRnVuc3RvbjEdMBsGA1UECxMUTXlPcmdhbml6YXRpb25hbFVuaXQxGDAWBgNV
BAMTD0ZvcnQtRnVuc3RvbiBDQTEQMA4GA1UEKRMHRWFzeVJTQTEhMB8GCSqGSIb3
DQEJARYSbWVAbXlob3N0Lm15ZG9tYWluMB4XDTE4MDIxMzA4MzIzOFoXDTI4MDIx
MTA4MzIzOFowga0xCzAJBgNVBAYTAlVTMQswCQYDVQQIEwJDQTEVMBMGA1UEBxMM
U2FuRnJhbmNpc2NvMRUwEwYDVQQKEwxGb3J0LUZ1bnN0b24xHTAbBgNVBAsTFE15
T3JnYW5pemF0aW9uYWxVbml0MQ8wDQYDVQQDEwZzZXJ2ZXIxEDAOBgNVBCkTB0Vh
c3lSU0ExITAfBgkqhkiG9w0BCQEWEm1lQG15aG9zdC5teWRvbWFpbjCCASIwDQYJ
KoZIhvcNAQEBBQADggEPADCCAQoCggEBAPGrJXWbE8D4sn9hx5dOdt0++0X/dZ78
iiPIwVpF6ZqG1Sw9suXNQipMPxlEAtAExDXMxCIjV73RHTcR++vK0WMiKfwrFYNq
iS6Z0yH4whV0/2+0WgPzwF+WBRkBve+X4b57GPXjb5QMlP/vgplXmawZEkYzab9z
yKTQ7z1tXBcfhfI4sxYiSUl7p8zkxwDcUBQgsd+jlj7l+7ZbASMUsEqbdbhjWyF/
sPBhowir16jXpH8fUg16ZEMHAN6ISQjOWDJxPDo2N48GVSJZq9tWaKT0UK0/KBzq
NO3rhUHqGl3g8vmiC3TgzFaUZ7kZbJNAG+6Wu9u13yLmCIcGldpciVUCAwEAAaOC
AZowggGWMAkGA1UdEwQCMAAwEQYJYIZIAYb4QgEBBAQDAgZAMDQGCWCGSAGG+EIB
DQQnFiVFYXN5LVJTQSBHZW5lcmF0ZWQgU2VydmVyIENlcnRpZmljYXRlMB0GA1Ud
DgQWBBTznj9rGxWLvE2AkHMuGTBQkkEENTCB6wYDVR0jBIHjMIHggBS7sbaVCTFH
M11v3qvIRWE2WOcz06GBvKSBuTCBtjELMAkGA1UEBhMCVVMxCzAJBgNVBAgTAkNB
MRUwEwYDVQQHEwxTYW5GcmFuY2lzY28xFTATBgNVBAoTDEZvcnQtRnVuc3RvbjEd
MBsGA1UECxMUTXlPcmdhbml6YXRpb25hbFVuaXQxGDAWBgNVBAMTD0ZvcnQtRnVu
c3RvbiBDQTEQMA4GA1UEKRMHRWFzeVJTQTEhMB8GCSqGSIb3DQEJARYSbWVAbXlo
b3N0Lm15ZG9tYWluggkAmcxoals8Q7IwEwYDVR0lBAwwCgYIKwYBBQUHAwEwCwYD
VR0PBAQDAgWgMBEGA1UdEQQKMAiCBnNlcnZlcjANBgkqhkiG9w0BAQsFAAOCAQEA
i+89fz+tOazfJjvgeb/yiGzSDN8Te1pnPjjeOsTrBNdtXJ3mhbqmk5cUlnjGibvQ
9WeThOg0Ygg/atSFbr8sDB/56WpcM+fOez21hZSWB0idH24puVwiAfbncBDv2p0w
2oZLr2t3kwcAjofC9bYH769JTDC4/NUuuOvBNLT4tiTqOiNYjPwNwIWHkFAWhhis
Gvg/8olv5cV6BWjf+sBctIrUz7n6yq4rd+7LOahSih2jOM82+dlYaBAiOy2aEBYC
kDN20FxBMFNca8GfbuI3R/MphKbgUbST/Cn7s9ZdIA2ZcjykyMA4VPW5L8Rb2I23
XD7xSzH+opS3NN67cQc1XQ==
-----END CERTIFICATE-----
