Certificate:
    Data:
        Version: 3 (0x2)
        Serial Number: 2 (0x2)
    Signature Algorithm: sha256WithRSAEncryption
        Issuer: C=US, ST=CA, L=SanFrancisco, O=Fort-Funston, OU=MyOrganizationalUnit, CN=Fort-Funston CA/name=EasyRSA/emailAddress=me@myhost.mydomain
        Validity
            Not Before: Feb 13 08:33:43 2018 GMT
            Not After : Feb 11 08:33:43 2028 GMT
        Subject: C=US, ST=CA, L=SanFrancisco, O=Fort-Funston, OU=MyOrganizationalUnit, CN=client1/name=EasyRSA/emailAddress=me@myhost.mydomain
        Subject Public Key Info:
            Public Key Algorithm: rsaEncryption
                Public-Key: (2048 bit)
                Modulus:
                    00:de:c7:1f:ce:65:66:41:55:e4:de:cb:8c:db:f3:
                    a1:2b:5c:a9:ee:7e:50:ee:94:61:5d:ea:ef:e4:81:
                    db:f4:b6:fc:b5:05:ca:bf:72:9f:53:ad:bd:b6:12:
                    24:b5:54:a1:9f:b3:59:76:1e:b1:a8:ee:a2:e3:c2:
                    2a:af:98:7c:24:1f:1f:e9:a4:00:b5:1f:a1:e3:7b:
                    71:a0:da:a0:f5:e4:f4:be:ea:52:36:ff:df:54:b9:
                    13:3e:3a:eb:10:0f:08:d8:a4:13:7b:5d:10:ad:23:
                    6f:17:da:6f:f8:91:6d:c6:99:10:49:ed:0d:6d:93:
                    9d:08:d7:ca:68:6f:cb:5a:47:b7:f4:3d:fc:50:04:
                    6d:c0:b0:59:52:ad:28:f7:d6:5f:ac:de:19:f9:0f:
                    12:db:76:9d:71:a6:de:b5:af:a9:0d:45:3d:25:fe:
                    94:77:5b:53:05:4f:94:a3:33:b6:73:45:66:30:31:
                    f5:d3:d9:d6:7e:d0:a6:7c:7f:53:a6:21:86:91:85:
                    55:f3:47:f2:2b:75:52:41:d8:54:a9:f5:9b:be:7c:
                    1d:53:fd:09:6f:75:a0:b3:05:65:af:15:8b:81:3b:
                    20:e2:64:43:2e:ad:15:10:44:f2:82:18:d8:ca:64:
                    64:63:ed:63:d3:a9:a3:b2:af:af:99:6e:71:88:bd:
                    a3:51
                Exponent: 65537 (0x10001)
        X509v3 extensions:
            X509v3 Basic Constraints: 
                CA:FALSE
            Netscape Comment: 
                Easy-RSA Generated Certificate
            X509v3 Subject Key Identifier: 
                F9:C8:8D:EC:31:8E:A1:62:4A:7D:D2:FE:3B:AD:43:EB:6F:AB:1D:27
            X509v3 Authority Key Identifier: 
                keyid:BB:B1:B6:95:09:31:47:33:5D:6F:DE:AB:C8:45:61:36:58:E7:33:D3
                DirName:/C=US/ST=CA/L=SanFrancisco/O=Fort-Funston/OU=MyOrganizationalUnit/CN=Fort-Funston CA/name=EasyRSA/emailAddress=me@myhost.mydomain
                serial:99:CC:68:6A:5B:3C:43:B2

            X509v3 Extended Key Usage: 
                TLS Web Client Authentication
            X509v3 Key Usage: 
                Digital Signature
            X509v3 Subject Alternative Name: 
                DNS:client1
    Signature Algorithm: sha256WithRSAEncryption
         42:71:b9:46:08:97:24:f1:53:5a:60:bb:21:f9:30:0f:ca:57:
         79:69:88:81:cd:0f:68:ec:5e:28:c3:b4:60:dd:14:61:02:9c:
         95:df:79:f2:d0:f9:e3:10:73:93:25:b1:c6:e5:dd:ad:00:ff:
         1a:51:b1:b0:bd:c2:7a:c0:57:ef:cb:a3:5f:6e:38:a6:06:5b:
         58:6a:0c:0c:1b:11:3f:4b:96:0e:4d:fd:18:10:da:36:ec:b1:
         e9:02:bf:82:b2:ec:30:85:0d:54:a9:a8:f8:c5:d9:17:cb:f7:
         cf:d0:f9:aa:40:09:3d:a6:e6:d8:13:53:f3:03:70:40:65:c5:
         a7:73:22:85:27:b8:be:50:30:c3:b3:12:0d:07:ce:fd:6b:8e:
         28:33:48:f7:a9:3d:7d:c0:9c:75:77:78:56:52:52:89:62:6f:
         cb:83:c0:4c:a2:ec:22:30:bd:4c:f2:86:b2:d5:c2:21:b6:20:
         ed:90:8e:1b:ab:0f:6c:d0:49:cd:a0:e8:b3:9b:05:d5:8a:2f:
         e4:37:f6:ae:ed:6c:9d:e1:40:05:fe:4d:20:d5:8e:fc:1e:02:
         08:19:2b:ea:81:7f:d7:ba:1d:e1:3b:25:a8:a7:ce:b1:17:a9:
         ad:26:af:b7:d6:75:e7:e4:42:8d:25:3a:1a:68:bd:d4:7b:92:
         cc:f9:43:7c
-----BEGIN CERTIFICATE-----
MIIFZDCCBEygAwIBAgIBAjANBgkqhkiG9w0BAQsFADCBtjELMAkGA1UEBhMCVVMx
CzAJBgNVBAgTAkNBMRUwEwYDVQQHEwxTYW5GcmFuY2lzY28xFTATBgNVBAoTDEZv
cnQtRnVuc3RvbjEdMBsGA1UECxMUTXlPcmdhbml6YXRpb25hbFVuaXQxGDAWBgNV
BAMTD0ZvcnQtRnVuc3RvbiBDQTEQMA4GA1UEKRMHRWFzeVJTQTEhMB8GCSqGSIb3
DQEJARYSbWVAbXlob3N0Lm15ZG9tYWluMB4XDTE4MDIxMzA4MzM0M1oXDTI4MDIx
MTA4MzM0M1owga4xCzAJBgNVBAYTAlVTMQswCQYDVQQIEwJDQTEVMBMGA1UEBxMM
U2FuRnJhbmNpc2NvMRUwEwYDVQQKEwxGb3J0LUZ1bnN0b24xHTAbBgNVBAsTFE15
T3JnYW5pemF0aW9uYWxVbml0MRAwDgYDVQQDEwdjbGllbnQxMRAwDgYDVQQpEwdF
YXN5UlNBMSEwHwYJKoZIhvcNAQkBFhJtZUBteWhvc3QubXlkb21haW4wggEiMA0G
CSqGSIb3DQEBAQUAA4IBDwAwggEKAoIBAQDexx/OZWZBVeTey4zb86ErXKnuflDu
lGFd6u/kgdv0tvy1Bcq/cp9Trb22EiS1VKGfs1l2HrGo7qLjwiqvmHwkHx/ppAC1
H6Hje3Gg2qD15PS+6lI2/99UuRM+OusQDwjYpBN7XRCtI28X2m/4kW3GmRBJ7Q1t
k50I18pob8taR7f0PfxQBG3AsFlSrSj31l+s3hn5DxLbdp1xpt61r6kNRT0l/pR3
W1MFT5SjM7ZzRWYwMfXT2dZ+0KZ8f1OmIYaRhVXzR/IrdVJB2FSp9Zu+fB1T/Qlv
daCzBWWvFYuBOyDiZEMurRUQRPKCGNjKZGRj7WPTqaOyr6+ZbnGIvaNRAgMBAAGj
ggGBMIIBfTAJBgNVHRMEAjAAMC0GCWCGSAGG+EIBDQQgFh5FYXN5LVJTQSBHZW5l
cmF0ZWQgQ2VydGlmaWNhdGUwHQYDVR0OBBYEFPnIjewxjqFiSn3S/jutQ+tvqx0n
MIHrBgNVHSMEgeMwgeCAFLuxtpUJMUczXW/eq8hFYTZY5zPToYG8pIG5MIG2MQsw
CQYDVQQGEwJVUzELMAkGA1UECBMCQ0ExFTATBgNVBAcTDFNhbkZyYW5jaXNjbzEV
MBMGA1UEChMMRm9ydC1GdW5zdG9uMR0wGwYDVQQLExRNeU9yZ2FuaXphdGlvbmFs
VW5pdDEYMBYGA1UEAxMPRm9ydC1GdW5zdG9uIENBMRAwDgYDVQQpEwdFYXN5UlNB
MSEwHwYJKoZIhvcNAQkBFhJtZUBteWhvc3QubXlkb21haW6CCQCZzGhqWzxDsjAT
BgNVHSUEDDAKBggrBgEFBQcDAjALBgNVHQ8EBAMCB4AwEgYDVR0RBAswCYIHY2xp
ZW50MTANBgkqhkiG9w0BAQsFAAOCAQEAQnG5RgiXJPFTWmC7IfkwD8pXeWmIgc0P
aOxeKMO0YN0UYQKcld958tD54xBzkyWxxuXdrQD/GlGxsL3CesBX78ujX244pgZb
WGoMDBsRP0uWDk39GBDaNuyx6QK/grLsMIUNVKmo+MXZF8v3z9D5qkAJPabm2BNT
8wNwQGXFp3MihSe4vlAww7MSDQfO/WuOKDNI96k9fcCcdXd4VlJSiWJvy4PATKLs
IjC9TPKGstXCIbYg7ZCOG6sPbNBJzaDos5sF1Yov5Df2ru1sneFABf5NINWO/B4C
CBkr6oF/17od4TslqKfOsReprSavt9Z15+RCjSU6Gmi91HuSzPlDfA==
-----END CERTIFICATE-----
